target datalayout = "e-m:e-p270:32:32-p271:32:32-p272:64:64-i64:64-i128:128-f80:128-n8:16:32:64-S128"
target triple = "x86_64-unknown-linux-gnu"

%"class.folly::Indestructible" = type { %"struct.folly::Indestructible<proxygen::huffman::HuffTree>::Storage" }
%"struct.folly::Indestructible<proxygen::huffman::HuffTree>::Storage" = type { %"union.std::aligned_storage<23576, 8>::type" }
%"union.std::aligned_storage<23576, 8>::type" = type { [23576 x i8] }
%"class.proxygen::huffman::HuffTree" = type { i32, ptr, ptr, [46 x %"struct.proxygen::huffman::SuperHuffNode"] }
%"struct.proxygen::huffman::SuperHuffNode" = type { [256 x %"struct.proxygen::huffman::HuffNode"] }
%"struct.proxygen::huffman::HuffNode" = type { %union.anon, %struct.anon }
%union.anon = type { i8 }
%struct.anon = type { i8 }

@_ZZN8proxygen7huffman8huffTreeEvE8huffTree = internal global %"class.folly::Indestructible" zeroinitializer, align 8
@_ZGVZN8proxygen7huffman8huffTreeEvE8huffTree = internal global i64 0, align 8
@_ZN8proxygen7huffman8HuffTreeC1EPKjPKh = unnamed_addr alias void (ptr, ptr, ptr), ptr @_ZN8proxygen7huffman8HuffTreeC2EPKjPKh

; Function Attrs: mustprogress nounwind uwtable
define linkonce_odr noundef ptr @_ZNK5folly14IndestructibleIN8proxygen7huffman8HuffTreeEE3getEv(ptr noundef nonnull align 8 dereferenceable(23576) %this) #1 comdat align 2 {
entry:
  %this.addr = alloca ptr, align 8
  store ptr %this, ptr %this.addr, align 8
  %this1 = load ptr, ptr %this.addr, align 8
  %storage_ = getelementptr inbounds %"class.folly::Indestructible", ptr %this1, i32 0, i32 0
  %bytes = getelementptr inbounds %"struct.folly::Indestructible<proxygen::huffman::HuffTree>::Storage", ptr %storage_, i32 0, i32 0
  ret ptr %bytes
}

; Function Attrs: mustprogress nounwind uwtable
define linkonce_odr void @_ZN5folly14IndestructibleIN8proxygen7huffman8HuffTreeEE7StorageC2IJS3_ES3_EESt10in_place_tDpOT_(ptr noundef nonnull align 8 dereferenceable(23576) %this, ptr noundef nonnull align 8 dereferenceable(23576) %args) unnamed_addr #1 comdat align 2 {
entry:
  %this.addr = alloca ptr, align 8
  %args.addr = alloca ptr, align 8
  store ptr %this, ptr %this.addr, align 8
  store ptr %args, ptr %args.addr, align 8
  %this1 = load ptr, ptr %this.addr, align 8
  %bytes2 = getelementptr inbounds %"struct.folly::Indestructible<proxygen::huffman::HuffTree>::Storage", ptr %this1, i32 0, i32 0
  %0 = load ptr, ptr %args.addr, align 8
  call void @llvm.memcpy.p0.p0.i64(ptr align 8 %bytes2, ptr align 8 %0, i64 23576, i1 false)
  ret void
}

; Function Attrs: mustprogress nounwind uwtable
define linkonce_odr noundef nonnull align 8 dereferenceable(23576) ptr @_ZNK5folly14IndestructibleIN8proxygen7huffman8HuffTreeEEdeEv(ptr noundef nonnull align 8 dereferenceable(23576) %this) #1 comdat align 2 {
entry:
  %this.addr = alloca ptr, align 8
  store ptr %this, ptr %this.addr, align 8
  %this1 = load ptr, ptr %this.addr, align 8
  %call = call noundef ptr @_ZNK5folly14IndestructibleIN8proxygen7huffman8HuffTreeEE3getEv(ptr noundef nonnull align 8 dereferenceable(23576) %this1) #3
  ret ptr %call
}

; Function Attrs: mustprogress nounwind uwtable
define linkonce_odr void @_ZN8proxygen7huffman8HuffTreeD2Ev(ptr noundef nonnull align 8 dereferenceable(23576) %this) unnamed_addr #1 comdat align 2 {
entry:
  %this.addr = alloca ptr, align 8
  store ptr %this, ptr %this.addr, align 8
  ret void
}

; Function Attrs: mustprogress nounwind uwtable
define linkonce_odr void @_ZN5folly14IndestructibleIN8proxygen7huffman8HuffTreeEEC2IS3_TnPNSt9enable_ifIXsr3std16is_constructibleIS3_OT_EE5valueEvE4typeELPv0ETnPNS6_IXntsr3std7is_sameIS4_NS_12remove_cvrefIS7_E4typeEEE5valueEvE4typeELSC_0ETnPNS6_IXntsr3std14is_convertibleIS8_S3_EE5valueEvE4typeELSC_0EEES8_(ptr noundef nonnull align 8 dereferenceable(23576) %this, ptr noundef nonnull align 8 dereferenceable(23576) %u) unnamed_addr #1 comdat align 2 {
entry:
  %this.addr = alloca ptr, align 8
  %u.addr = alloca ptr, align 8
  store ptr %this, ptr %this.addr, align 8
  store ptr %u, ptr %u.addr, align 8
  %this1 = load ptr, ptr %this.addr, align 8
  %storage_ = getelementptr inbounds %"class.folly::Indestructible", ptr %this1, i32 0, i32 0
  %0 = load ptr, ptr %u.addr, align 8
  call void @_ZN5folly14IndestructibleIN8proxygen7huffman8HuffTreeEE7StorageC2IJS3_ES3_EESt10in_place_tDpOT_(ptr noundef nonnull align 8 dereferenceable(23576) %storage_, ptr noundef nonnull align 8 dereferenceable(23576) %0) #3
  ret void
}

; Function Attrs: mustprogress uwtable
define noundef nonnull align 8 dereferenceable(23576) ptr @_ZN8proxygen7huffman8huffTreeEv() #0 personality ptr @__gxx_personality_v0 {
entry:
  %ref.tmp = alloca %"class.proxygen::huffman::HuffTree", align 8
  %exn.slot = alloca ptr, align 8
  %ehselector.slot = alloca i32, align 4
  %0 = load atomic i8, ptr @_ZGVZN8proxygen7huffman8huffTreeEvE8huffTree acquire, align 8
  %guard.uninitialized = icmp eq i8 %0, 0
  br i1 %guard.uninitialized, label %init.check, label %init.end, !prof !11

init.check:                                       ; preds = %entry
  %1 = call i32 @__cxa_guard_acquire(ptr @_ZGVZN8proxygen7huffman8huffTreeEvE8huffTree) #3
  %tobool = icmp ne i32 %1, 0
  br i1 %tobool, label %init, label %init.end

init:                                             ; preds = %init.check
  invoke void @_ZN8proxygen7huffman8HuffTreeC1EPKjPKh(ptr noundef nonnull align 8 dereferenceable(23576) %ref.tmp, ptr noundef @_ZN8proxygen7huffmanL12s_codesTableE, ptr noundef @_ZN8proxygen7huffmanL11s_bitsTableE)
          to label %invoke.cont unwind label %lpad

invoke.cont:                                      ; preds = %init
  call void @_ZN5folly14IndestructibleIN8proxygen7huffman8HuffTreeEEC2IS3_TnPNSt9enable_ifIXsr3std16is_constructibleIS3_OT_EE5valueEvE4typeELPv0ETnPNS6_IXntsr3std7is_sameIS4_NS_12remove_cvrefIS7_E4typeEEE5valueEvE4typeELSC_0ETnPNS6_IXntsr3std14is_convertibleIS8_S3_EE5valueEvE4typeELSC_0EEES8_(ptr noundef nonnull align 8 dereferenceable(23576) @_ZZN8proxygen7huffman8huffTreeEvE8huffTree, ptr noundef nonnull align 8 dereferenceable(23576) %ref.tmp) #3
  call void @_ZN8proxygen7huffman8HuffTreeD2Ev(ptr noundef nonnull align 8 dereferenceable(23576) %ref.tmp) #3
  call void @__cxa_guard_release(ptr @_ZGVZN8proxygen7huffman8huffTreeEvE8huffTree) #3
  br label %init.end

init.end:                                         ; preds = %invoke.cont, %init.check, %entry
  %call = call noundef nonnull align 8 dereferenceable(23576) ptr @_ZNK5folly14IndestructibleIN8proxygen7huffman8HuffTreeEEdeEv(ptr noundef nonnull align 8 dereferenceable(23576) @_ZZN8proxygen7huffman8huffTreeEvE8huffTree) #3
  ret ptr %call

lpad:                                             ; preds = %init
  %2 = landingpad { ptr, i32 }
          cleanup
  %3 = extractvalue { ptr, i32 } %2, 0
  store ptr %3, ptr %exn.slot, align 8
  %4 = extractvalue { ptr, i32 } %2, 1
  store i32 %4, ptr %ehselector.slot, align 4
  call void @__cxa_guard_abort(ptr @_ZGVZN8proxygen7huffman8huffTreeEvE8huffTree) #3
  br label %eh.resume

eh.resume:                                        ; preds = %lpad
  %exn = load ptr, ptr %exn.slot, align 8
  %sel = load i32, ptr %ehselector.slot, align 4
  %lpad.val = insertvalue { ptr, i32 } poison, ptr %exn, 0
  %lpad.val1 = insertvalue { ptr, i32 } %lpad.val, i32 %sel, 1
  resume { ptr, i32 } %lpad.val1
}