; Function Attrs: mustprogress uwtable
define noundef nonnull align 8 dereferenceable(23576) ptr @_ZN8proxygen7huffman8huffTreeEv() local_unnamed_addr #1 personality ptr @__gxx_personality_v0 {
entry:
  %ref.tmp = alloca %"class.proxygen::huffman::HuffTree", align 8
  %0 = load atomic i8, ptr @_ZGVZN8proxygen7huffman8huffTreeEvE8huffTree acquire, align 8
  %guard.uninitialized = icmp eq i8 %0, 0
  br i1 %guard.uninitialized, label %init.check, label %init.end, !prof !12

init.check:                                       ; preds = %entry
  %1 = tail call i32 @__cxa_guard_acquire(ptr nonnull @_ZGVZN8proxygen7huffman8huffTreeEvE8huffTree) #25
  %tobool.not = icmp eq i32 %1, 0
  br i1 %tobool.not, label %init.end, label %init

init:                                             ; preds = %init.check
  invoke void @_ZN8proxygen7huffman8HuffTreeC1EPKjPKh(ptr noundef nonnull align 8 dereferenceable(23576) %ref.tmp, ptr noundef nonnull @_ZN8proxygen7huffmanL12s_codesTableE, ptr noundef nonnull @_ZN8proxygen7huffmanL11s_bitsTableE)
          to label %invoke.cont unwind label %lpad

invoke.cont:                                      ; preds = %init
  call void @llvm.memcpy.p0.p0.i64(ptr noundef nonnull align 8 dereferenceable(23576) @_ZZN8proxygen7huffman8huffTreeEvE8huffTree, ptr noundef nonnull align 8 dereferenceable(23576) %ref.tmp, i64 23576, i1 false)
  call void @__cxa_guard_release(ptr nonnull @_ZGVZN8proxygen7huffman8huffTreeEvE8huffTree) #25
  br label %init.end

init.end:                                         ; preds = %invoke.cont, %init.check, %entry
  ret ptr @_ZZN8proxygen7huffman8huffTreeEvE8huffTree

lpad:                                             ; preds = %init
  %2 = landingpad { ptr, i32 }
          cleanup
  call void @__cxa_guard_abort(ptr nonnull @_ZGVZN8proxygen7huffman8huffTreeEvE8huffTree) #25
  resume { ptr, i32 } %2
}